; ModuleID = '11/569.c'
source_filename = "11/569.c"
target datalayout = "e-m:e-p270:32:32-p271:32:32-p272:64:64-i64:64-f80:128-n8:16:32:64-S128"
target triple = "x86_64-pc-linux-gnu"

@.str = private unnamed_addr constant [7 x i8] c"%d%d%d\00", align 1
@__const.main.one = private unnamed_addr constant [12 x i32] [i32 31, i32 29, i32 31, i32 30, i32 31, i32 30, i32 31, i32 31, i32 30, i32 31, i32 30, i32 31], align 16
@__const.main.another = private unnamed_addr constant [12 x i32] [i32 31, i32 28, i32 31, i32 30, i32 31, i32 30, i32 31, i32 31, i32 30, i32 31, i32 30, i32 31], align 16
@.str.1 = private unnamed_addr constant [4 x i8] c"%d\0A\00", align 1

; Function Attrs: noinline nounwind uwtable
define dso_local i32 @main() #0 {
  %1 = alloca i32, align 4
  %2 = alloca i32, align 4
  %3 = alloca i32, align 4
  %4 = alloca i32, align 4
  %5 = alloca i32, align 4
  %6 = alloca [12 x i32], align 16
  %7 = alloca [12 x i32], align 16
  %8 = alloca i32, align 4
  %9 = alloca i32, align 4
  store i32 0, i32* %1, align 4
  %10 = call i32 (i8*, ...) @__isoc99_scanf(i8* getelementptr inbounds ([7 x i8], [7 x i8]* @.str, i64 0, i64 0), i32* %2, i32* %3, i32* %4)
  %11 = bitcast [12 x i32]* %6 to i8*
  call void @llvm.memcpy.p0i8.p0i8.i64(i8* align 16 %11, i8* align 16 bitcast ([12 x i32]* @__const.main.one to i8*), i64 48, i1 false)
  %12 = bitcast [12 x i32]* %7 to i8*
  call void @llvm.memcpy.p0i8.p0i8.i64(i8* align 16 %12, i8* align 16 bitcast ([12 x i32]* @__const.main.another to i8*), i64 48, i1 false)
  store i32 0, i32* %9, align 4
  %13 = load i32, i32* %2, align 4
  %14 = srem i32 %13, 4
  %15 = icmp eq i32 %14, 0
  br i1 %15, label %16, label %20

16:                                               ; preds = %0
  %17 = load i32, i32* %2, align 4
  %18 = srem i32 %17, 100
  %19 = icmp ne i32 %18, 0
  br i1 %19, label %24, label %20

20:                                               ; preds = %16, %0
  %21 = load i32, i32* %2, align 4
  %22 = srem i32 %21, 400
  %23 = icmp eq i32 %22, 0
  br i1 %23, label %24, label %44

24:                                               ; preds = %20, %16
  store i32 0, i32* %8, align 4
  br label %25

25:                                               ; preds = %37, %24
  %26 = load i32, i32* %8, align 4
  %27 = load i32, i32* %3, align 4
  %28 = sub nsw i32 %27, 1
  %29 = icmp slt i32 %26, %28
  br i1 %29, label %30, label %40

30:                                               ; preds = %25
  %31 = load i32, i32* %9, align 4
  %32 = load i32, i32* %8, align 4
  %33 = sext i32 %32 to i64
  %34 = getelementptr inbounds [12 x i32], [12 x i32]* %6, i64 0, i64 %33
  %35 = load i32, i32* %34, align 4
  %36 = add nsw i32 %31, %35
  store i32 %36, i32* %9, align 4
  br label %37

37:                                               ; preds = %30
  %38 = load i32, i32* %8, align 4
  %39 = add nsw i32 %38, 1
  store i32 %39, i32* %8, align 4
  br label %25

40:                                               ; preds = %25
  %41 = load i32, i32* %9, align 4
  %42 = load i32, i32* %4, align 4
  %43 = add nsw i32 %41, %42
  store i32 %43, i32* %5, align 4
  br label %64

44:                                               ; preds = %20
  store i32 0, i32* %8, align 4
  br label %45

45:                                               ; preds = %57, %44
  %46 = load i32, i32* %8, align 4
  %47 = load i32, i32* %3, align 4
  %48 = sub nsw i32 %47, 1
  %49 = icmp slt i32 %46, %48
  br i1 %49, label %50, label %60

50:                                               ; preds = %45
  %51 = load i32, i32* %9, align 4
  %52 = load i32, i32* %8, align 4
  %53 = sext i32 %52 to i64
  %54 = getelementptr inbounds [12 x i32], [12 x i32]* %7, i64 0, i64 %53
  %55 = load i32, i32* %54, align 4
  %56 = add nsw i32 %51, %55
  store i32 %56, i32* %9, align 4
  br label %57

57:                                               ; preds = %50
  %58 = load i32, i32* %8, align 4
  %59 = add nsw i32 %58, 1
  store i32 %59, i32* %8, align 4
  br label %45

60:                                               ; preds = %45
  %61 = load i32, i32* %9, align 4
  %62 = load i32, i32* %4, align 4
  %63 = add nsw i32 %61, %62
  store i32 %63, i32* %5, align 4
  br label %64

64:                                               ; preds = %60, %40
  %65 = load i32, i32* %5, align 4
  %66 = call i32 (i8*, ...) @printf(i8* getelementptr inbounds ([4 x i8], [4 x i8]* @.str.1, i64 0, i64 0), i32 %65)
  ret i32 0
}

declare dso_local i32 @__isoc99_scanf(i8*, ...) #1

; Function Attrs: argmemonly nounwind willreturn
declare void @llvm.memcpy.p0i8.p0i8.i64(i8* noalias nocapture writeonly, i8* noalias nocapture readonly, i64, i1 immarg) #2

declare dso_local i32 @printf(i8*, ...) #1


!llvm.module.flags = !{!0}
!llvm.ident = !{!1}

!0 = !{i32 1, !"wchar_size", i32 4}
!1 = !{!"clang version 10.0.0-4ubuntu1 "}
